target datalayout = "e-m:e-p270:32:32-p271:32:32-p272:64:64-i64:64-i128:128-f80:128-n8:16:32:64-S128"
target triple = "x86_64-pc-linux-gnu"

%struct.AVFilterContext = type { ptr, ptr, ptr, ptr, ptr, i32, ptr, ptr, i32, ptr, ptr, i32, i32, ptr, ptr, ptr, ptr, i32, ptr, i32, i32 }
%struct.MedianContext = type { ptr, i32, i32, i32, float, [4 x i32], [4 x i32], i32, i32, i32, ptr, ptr, i32, i32, i32, i32, ptr, ptr, ptr, ptr }
%struct.ThreadData = type { ptr, ptr }
%struct.AVFilterLink = type { ptr, ptr, ptr, ptr, i32, i32, i32, i32, %struct.AVRational, i32, i32, i32, %struct.AVChannelLayout, %struct.AVRational, ptr, i32, %struct.AVFilterFormatsConfig, %struct.AVFilterFormatsConfig }
%struct.AVChannelLayout = type { i32, i32, %union.anon.1, ptr }
%union.anon.1 = type { i64 }
%struct.AVRational = type { i32, i32 }
%struct.AVFilterFormatsConfig = type { ptr, ptr, ptr, ptr, ptr }

; Function Attrs: nounwind uwtable
define internal i32 @filter_frame(ptr noundef %0, ptr noundef %1) #1 {
  %3 = alloca i32, align 4
  %4 = alloca ptr, align 8
  %5 = alloca ptr, align 8
  %6 = alloca ptr, align 8
  %7 = alloca ptr, align 8
  %8 = alloca ptr, align 8
  %9 = alloca %struct.ThreadData, align 8
  %10 = alloca ptr, align 8
  %11 = alloca i32, align 4
  store ptr %0, ptr %4, align 8, !tbaa !37
  store ptr %1, ptr %5, align 8, !tbaa !39
  call void @llvm.lifetime.start.p0(i64 8, ptr %6) #8
  %12 = load ptr, ptr %4, align 8, !tbaa !37
  %13 = getelementptr inbounds nuw %struct.AVFilterLink, ptr %12, i32 0, i32 2
  %14 = load ptr, ptr %13, align 8, !tbaa !41
  store ptr %14, ptr %6, align 8, !tbaa !4
  call void @llvm.lifetime.start.p0(i64 8, ptr %7) #8
  %15 = load ptr, ptr %6, align 8, !tbaa !4
  %16 = getelementptr inbounds nuw %struct.AVFilterContext, ptr %15, i32 0, i32 9
  %17 = load ptr, ptr %16, align 8, !tbaa !9
  store ptr %17, ptr %7, align 8, !tbaa !22
  call void @llvm.lifetime.start.p0(i64 8, ptr %8) #8
  %18 = load ptr, ptr %6, align 8, !tbaa !4
  %19 = getelementptr inbounds nuw %struct.AVFilterContext, ptr %18, i32 0, i32 7
  %20 = load ptr, ptr %19, align 8, !tbaa !49
  %21 = getelementptr inbounds ptr, ptr %20, i64 0
  %22 = load ptr, ptr %21, align 8, !tbaa !37
  store ptr %22, ptr %8, align 8, !tbaa !37
  call void @llvm.lifetime.start.p0(i64 16, ptr %9) #8
  call void @llvm.lifetime.start.p0(i64 8, ptr %10) #8
  %23 = load ptr, ptr %8, align 8, !tbaa !37
  %24 = load ptr, ptr %8, align 8, !tbaa !37
  %25 = getelementptr inbounds nuw %struct.AVFilterLink, ptr %24, i32 0, i32 6
  %26 = load i32, ptr %25, align 8, !tbaa !50
  %27 = load ptr, ptr %8, align 8, !tbaa !37
  %28 = getelementptr inbounds nuw %struct.AVFilterLink, ptr %27, i32 0, i32 7
  %29 = load i32, ptr %28, align 4, !tbaa !51
  %30 = call ptr @ff_get_video_buffer(ptr noundef %23, i32 noundef %26, i32 noundef %29)
  store ptr %30, ptr %10, align 8, !tbaa !39
  %31 = load ptr, ptr %10, align 8, !tbaa !39
  %32 = icmp ne ptr %31, null
  br i1 %32, label %34, label %33

33:                                               ; preds = %2
  call void @av_frame_free(ptr noundef %5)
  store i32 -12, ptr %3, align 4
  store i32 1, ptr %11, align 4
  br label %50

34:                                               ; preds = %2
  %35 = load ptr, ptr %10, align 8, !tbaa !39
  %36 = load ptr, ptr %5, align 8, !tbaa !39
  %37 = call i32 @av_frame_copy_props(ptr noundef %35, ptr noundef %36)
  %38 = load ptr, ptr %5, align 8, !tbaa !39
  %39 = getelementptr inbounds nuw %struct.ThreadData, ptr %9, i32 0, i32 0
  store ptr %38, ptr %39, align 8, !tbaa !52
  %40 = load ptr, ptr %10, align 8, !tbaa !39
  %41 = getelementptr inbounds nuw %struct.ThreadData, ptr %9, i32 0, i32 1
  store ptr %40, ptr %41, align 8, !tbaa !54
  %42 = load ptr, ptr %6, align 8, !tbaa !4
  %43 = load ptr, ptr %7, align 8, !tbaa !22
  %44 = getelementptr inbounds nuw %struct.MedianContext, ptr %43, i32 0, i32 9
  %45 = load i32, ptr %44, align 8, !tbaa !25
  %46 = call i32 @ff_filter_execute(ptr noundef %42, ptr noundef @filter_slice, ptr noundef %9, ptr noundef null, i32 noundef %45)
  call void @av_frame_free(ptr noundef %5)
  %47 = load ptr, ptr %8, align 8, !tbaa !37
  %48 = load ptr, ptr %10, align 8, !tbaa !39
  %49 = call i32 @ff_filter_frame(ptr noundef %47, ptr noundef %48)
  store i32 %49, ptr %3, align 4
  store i32 1, ptr %11, align 4
  br label %50

50:                                               ; preds = %34, %33
  call void @llvm.lifetime.end.p0(i64 8, ptr %10) #8
  call void @llvm.lifetime.end.p0(i64 16, ptr %9) #8
  call void @llvm.lifetime.end.p0(i64 8, ptr %8) #8
  call void @llvm.lifetime.end.p0(i64 8, ptr %7) #8
  call void @llvm.lifetime.end.p0(i64 8, ptr %6) #8
  %51 = load i32, ptr %3, align 4
  ret i32 %51
}